target datalayout = "e-m:e-p270:32:32-p271:32:32-p272:64:64-i64:64-i128:128-f80:128-n8:16:32:64-S128"
target triple = "x86_64-pc-linux-gnu"

%struct.yyjson_alc = type { ptr, ptr, ptr, ptr }
%struct.yyjson_str_pool = type { ptr, ptr, i64, i64, ptr }
%struct.yyjson_str_chunk = type { ptr, i64 }
%struct.yyjson_val_pool = type { ptr, ptr, i64, i64, ptr }
%struct.yyjson_val_chunk = type { ptr, i64 }
%struct.yyjson_mut_doc = type { ptr, %struct.yyjson_alc, %struct.yyjson_str_pool, %struct.yyjson_val_pool }

; Function Attrs: alwaysinline nounwind uwtable
define internal void @unsafe_yyjson_val_pool_release(ptr noundef %0, ptr noundef %1) #4 {
  %3 = alloca ptr, align 8
  %4 = alloca ptr, align 8
  %5 = alloca ptr, align 8
  %6 = alloca ptr, align 8
  store ptr %0, ptr %3, align 8, !tbaa !57
  store ptr %1, ptr %4, align 8, !tbaa !4
  call void @llvm.lifetime.start.p0(i64 8, ptr %5) #13
  %7 = load ptr, ptr %3, align 8, !tbaa !57
  %8 = getelementptr inbounds nuw %struct.yyjson_val_pool, ptr %7, i32 0, i32 4
  %9 = load ptr, ptr %8, align 8, !tbaa !64
  store ptr %9, ptr %5, align 8, !tbaa !63
  call void @llvm.lifetime.start.p0(i64 8, ptr %6) #13
  br label %10

10:                                               ; preds = %13, %2
  %11 = load ptr, ptr %5, align 8, !tbaa !63
  %12 = icmp ne ptr %11, null
  br i1 %12, label %13, label %25

13:                                               ; preds = %10
  %14 = load ptr, ptr %5, align 8, !tbaa !63
  %15 = getelementptr inbounds nuw %struct.yyjson_val_chunk, ptr %14, i32 0, i32 0
  %16 = load ptr, ptr %15, align 8, !tbaa !65
  store ptr %16, ptr %6, align 8, !tbaa !63
  %17 = load ptr, ptr %4, align 8, !tbaa !4
  %18 = getelementptr inbounds nuw %struct.yyjson_alc, ptr %17, i32 0, i32 2
  %19 = load ptr, ptr %18, align 8, !tbaa !26
  %20 = load ptr, ptr %4, align 8, !tbaa !4
  %21 = getelementptr inbounds nuw %struct.yyjson_alc, ptr %20, i32 0, i32 3
  %22 = load ptr, ptr %21, align 8, !tbaa !27
  %23 = load ptr, ptr %5, align 8, !tbaa !63
  call void %19(ptr noundef %22, ptr noundef %23)
  %24 = load ptr, ptr %6, align 8, !tbaa !63
  store ptr %24, ptr %5, align 8, !tbaa !63
  br label %10, !llvm.loop !77

25:                                               ; preds = %10
  call void @llvm.lifetime.end.p0(i64 8, ptr %6) #13
  call void @llvm.lifetime.end.p0(i64 8, ptr %5) #13
  ret void
}

; Function Attrs: alwaysinline nounwind uwtable
define internal void @unsafe_yyjson_str_pool_release(ptr noundef %0, ptr noundef %1) #4 {
  %3 = alloca ptr, align 8
  %4 = alloca ptr, align 8
  %5 = alloca ptr, align 8
  %6 = alloca ptr, align 8
  store ptr %0, ptr %3, align 8, !tbaa !43
  store ptr %1, ptr %4, align 8, !tbaa !4
  call void @llvm.lifetime.start.p0(i64 8, ptr %5) #13
  %7 = load ptr, ptr %3, align 8, !tbaa !43
  %8 = getelementptr inbounds nuw %struct.yyjson_str_pool, ptr %7, i32 0, i32 4
  %9 = load ptr, ptr %8, align 8, !tbaa !50
  store ptr %9, ptr %5, align 8, !tbaa !49
  call void @llvm.lifetime.start.p0(i64 8, ptr %6) #13
  br label %10

10:                                               ; preds = %13, %2
  %11 = load ptr, ptr %5, align 8, !tbaa !49
  %12 = icmp ne ptr %11, null
  br i1 %12, label %13, label %25

13:                                               ; preds = %10
  %14 = load ptr, ptr %5, align 8, !tbaa !49
  %15 = getelementptr inbounds nuw %struct.yyjson_str_chunk, ptr %14, i32 0, i32 0
  %16 = load ptr, ptr %15, align 8, !tbaa !51
  store ptr %16, ptr %6, align 8, !tbaa !49
  %17 = load ptr, ptr %4, align 8, !tbaa !4
  %18 = getelementptr inbounds nuw %struct.yyjson_alc, ptr %17, i32 0, i32 2
  %19 = load ptr, ptr %18, align 8, !tbaa !26
  %20 = load ptr, ptr %4, align 8, !tbaa !4
  %21 = getelementptr inbounds nuw %struct.yyjson_alc, ptr %20, i32 0, i32 3
  %22 = load ptr, ptr %21, align 8, !tbaa !27
  %23 = load ptr, ptr %5, align 8, !tbaa !49
  call void %19(ptr noundef %22, ptr noundef %23)
  %24 = load ptr, ptr %6, align 8, !tbaa !49
  store ptr %24, ptr %5, align 8, !tbaa !49
  br label %10, !llvm.loop !76

25:                                               ; preds = %10
  call void @llvm.lifetime.end.p0(i64 8, ptr %6) #13
  call void @llvm.lifetime.end.p0(i64 8, ptr %5) #13
  ret void
}

; Function Attrs: nounwind uwtable
define dso_local void @yyjson_mut_doc_free(ptr noundef %0) #0 {
  %2 = alloca ptr, align 8
  %3 = alloca %struct.yyjson_alc, align 8
  store ptr %0, ptr %2, align 8, !tbaa !71
  %4 = load ptr, ptr %2, align 8, !tbaa !71
  %5 = icmp ne ptr %4, null
  br i1 %5, label %6, label %20

6:                                                ; preds = %1
  call void @llvm.lifetime.start.p0(i64 32, ptr %3) #13
  %7 = load ptr, ptr %2, align 8, !tbaa !71
  %8 = getelementptr inbounds nuw %struct.yyjson_mut_doc, ptr %7, i32 0, i32 1
  call void @llvm.memcpy.p0.p0.i64(ptr align 8 %3, ptr align 8 %8, i64 32, i1 false), !tbaa.struct !12
  %9 = load ptr, ptr %2, align 8, !tbaa !71
  %10 = getelementptr inbounds nuw %struct.yyjson_mut_doc, ptr %9, i32 0, i32 1
  call void @llvm.memset.p0.i64(ptr align 8 %10, i8 0, i64 32, i1 false)
  %11 = load ptr, ptr %2, align 8, !tbaa !71
  %12 = getelementptr inbounds nuw %struct.yyjson_mut_doc, ptr %11, i32 0, i32 2
  call void @unsafe_yyjson_str_pool_release(ptr noundef %12, ptr noundef %3)
  %13 = load ptr, ptr %2, align 8, !tbaa !71
  %14 = getelementptr inbounds nuw %struct.yyjson_mut_doc, ptr %13, i32 0, i32 3
  call void @unsafe_yyjson_val_pool_release(ptr noundef %14, ptr noundef %3)
  %15 = getelementptr inbounds nuw %struct.yyjson_alc, ptr %3, i32 0, i32 2
  %16 = load ptr, ptr %15, align 8, !tbaa !26
  %17 = getelementptr inbounds nuw %struct.yyjson_alc, ptr %3, i32 0, i32 3
  %18 = load ptr, ptr %17, align 8, !tbaa !27
  %19 = load ptr, ptr %2, align 8, !tbaa !71
  call void %16(ptr noundef %18, ptr noundef %19)
  call void @llvm.lifetime.end.p0(i64 32, ptr %3) #13
  br label %20

20:                                               ; preds = %6, %1
  ret void
}